target datalayout = "e-m:e-p270:32:32-p271:32:32-p272:64:64-i64:64-i128:128-f80:128-n8:16:32:64-S128"
target triple = "x86_64-pc-linux-gnu"

%struct.txfm_param = type { i8, i8, i32, i32, i32, i8, i32 }

; Function Attrs: nounwind uwtable
define internal ptr @cast_to_int32(ptr noundef %0) #0 {
  %2 = alloca ptr, align 8
  store ptr %0, ptr %2, align 8
  %3 = load ptr, ptr %2, align 8
  ret ptr %3
}

; Function Attrs: nounwind uwtable
define hidden void @av1_highbd_inv_txfm_add_4x16_c(ptr noundef %0, ptr noundef %1, i32 noundef %2, ptr noundef %3) #0 {
  %5 = alloca ptr, align 8
  %6 = alloca ptr, align 8
  %7 = alloca i32, align 4
  %8 = alloca ptr, align 8
  %9 = alloca ptr, align 8
  store ptr %0, ptr %5, align 8
  store ptr %1, ptr %6, align 8
  store i32 %2, ptr %7, align 4
  store ptr %3, ptr %8, align 8
  %10 = load ptr, ptr %5, align 8
  %11 = call ptr @cast_to_int32(ptr noundef %10)
  store ptr %11, ptr %9, align 8
  %12 = load ptr, ptr %9, align 8
  %13 = load ptr, ptr %6, align 8
  %14 = ptrtoint ptr %13 to i64
  %15 = shl i64 %14, 1
  %16 = inttoptr i64 %15 to ptr
  %17 = load i32, ptr %7, align 4
  %18 = load ptr, ptr %8, align 8
  %19 = getelementptr inbounds nuw %struct.txfm_param, ptr %18, i32 0, i32 0
  %20 = load i8, ptr %19, align 4
  %21 = load ptr, ptr %8, align 8
  %22 = getelementptr inbounds nuw %struct.txfm_param, ptr %21, i32 0, i32 3
  %23 = load i32, ptr %22, align 4
  call void @av1_inv_txfm2d_add_4x16_c(ptr noundef %12, ptr noundef %16, i32 noundef %17, i8 noundef zeroext %20, i32 noundef %23)
  ret void
}